; Function Attrs: nounwind uwtable
define hidden void @BIO_free_all(ptr noundef %0) local_unnamed_addr #0 {
  %.not25.i = icmp eq ptr %0, null
  br i1 %.not25.i, label %BIO_free.exit, label %.lr.ph.i

.lr.ph.i:                                         ; preds = %1, %19
  %.01626.i = phi ptr [ %12, %19 ], [ %0, %1 ]
  %2 = getelementptr inbounds nuw i8, ptr %.01626.i, i64 44
  %3 = tail call i32 @CRYPTO_refcount_dec_and_test_zero(ptr noundef nonnull %2) #18
  %.not21.i = icmp eq i32 %3, 0
  br i1 %.not21.i, label %BIO_free.exit, label %4

4:                                                ; preds = %.lr.ph.i
  %5 = getelementptr inbounds nuw i8, ptr %.01626.i, i64 8
  %6 = load ptr, ptr %5, align 8, !tbaa !20
  %.not22.i = icmp eq ptr %6, null
  br i1 %.not22.i, label %BIO_pop.exit.i, label %7

7:                                                ; preds = %4
  %8 = tail call i64 %6(ptr noundef nonnull %.01626.i, i32 noundef 1, ptr noundef null, i32 noundef 0, i64 noundef 0, i64 noundef 1) #18
  %9 = trunc i64 %8 to i32
  %10 = icmp sgt i32 %9, 0
  br i1 %10, label %BIO_pop.exit.i, label %BIO_free.exit

BIO_pop.exit.i:                                   ; preds = %7, %4
  %11 = getelementptr inbounds nuw i8, ptr %.01626.i, i64 56
  %12 = load ptr, ptr %11, align 8, !tbaa !21
  store ptr null, ptr %11, align 8, !tbaa !21
  %13 = load ptr, ptr %.01626.i, align 8, !tbaa !6
  %.not23.i = icmp eq ptr %13, null
  br i1 %.not23.i, label %19, label %14

14:                                               ; preds = %BIO_pop.exit.i
  %15 = getelementptr inbounds nuw i8, ptr %13, i64 64
  %16 = load ptr, ptr %15, align 8, !tbaa !22
  %.not24.i = icmp eq ptr %16, null
  br i1 %.not24.i, label %19, label %17

17:                                               ; preds = %14
  %18 = tail call i32 %16(ptr noundef nonnull %.01626.i) #18
  br label %19

19:                                               ; preds = %17, %14, %BIO_pop.exit.i
  tail call void @free(ptr noundef nonnull %.01626.i) #18
  %.not.i = icmp eq ptr %12, null
  br i1 %.not.i, label %BIO_free.exit, label %.lr.ph.i, !llvm.loop !23

BIO_free.exit:                                    ; preds = %.lr.ph.i, %7, %19, %1
  ret void
}